; ModuleID = 'source-C-CXX/54/1308.cpp'
source_filename = "source-C-CXX/54/1308.cpp"
target datalayout = "e-m:e-p270:32:32-p271:32:32-p272:64:64-i64:64-f80:128-n8:16:32:64-S128"
target triple = "x86_64-pc-linux-gnu"

%"class.std::ios_base::Init" = type { i8 }
%"class.std::basic_istream" = type { i32 (...)**, i64, %"class.std::basic_ios" }
%"class.std::basic_ios" = type { %"class.std::ios_base", %"class.std::basic_ostream"*, i8, i8, %"class.std::basic_streambuf"*, %"class.std::ctype"*, %"class.std::num_put"*, %"class.std::num_get"* }
%"class.std::ios_base" = type { i32 (...)**, i64, i64, i32, i32, i32, %"struct.std::ios_base::_Callback_list"*, %"struct.std::ios_base::_Words", [8 x %"struct.std::ios_base::_Words"], i32, %"struct.std::ios_base::_Words"*, %"class.std::locale" }
%"struct.std::ios_base::_Callback_list" = type { %"struct.std::ios_base::_Callback_list"*, void (i32, %"class.std::ios_base"*, i32)*, i32, i32 }
%"struct.std::ios_base::_Words" = type { i8*, i64 }
%"class.std::locale" = type { %"class.std::locale::_Impl"* }
%"class.std::locale::_Impl" = type { i32, %"class.std::locale::facet"**, i64, %"class.std::locale::facet"**, i8** }
%"class.std::locale::facet" = type <{ i32 (...)**, i32, [4 x i8] }>
%"class.std::basic_ostream" = type { i32 (...)**, %"class.std::basic_ios" }
%"class.std::basic_streambuf" = type { i32 (...)**, i8*, i8*, i8*, i8*, i8*, i8*, %"class.std::locale" }
%"class.std::ctype" = type <{ %"class.std::locale::facet.base", [4 x i8], %struct.__locale_struct*, i8, [7 x i8], i32*, i32*, i16*, i8, [256 x i8], [256 x i8], i8, [6 x i8] }>
%"class.std::locale::facet.base" = type <{ i32 (...)**, i32 }>
%struct.__locale_struct = type { [13 x %struct.__locale_data*], i16*, i32*, i32*, [13 x i8*] }
%struct.__locale_data = type opaque
%"class.std::num_put" = type { %"class.std::locale::facet.base", [4 x i8] }
%"class.std::num_get" = type { %"class.std::locale::facet.base", [4 x i8] }

@_ZStL8__ioinit = internal global %"class.std::ios_base::Init" zeroinitializer, align 1
@__dso_handle = external hidden global i8
@_ZSt3cin = external global %"class.std::basic_istream", align 8
@_ZSt4cout = external global %"class.std::basic_ostream", align 8
@llvm.global_ctors = appending global [1 x { i32, void ()*, i8* }] [{ i32, void ()*, i8* } { i32 65535, void ()* @_GLOBAL__sub_I_1308.cpp, i8* null }]

declare void @_ZNSt8ios_base4InitC1Ev(%"class.std::ios_base::Init"* nonnull align 1 dereferenceable(1)) unnamed_addr #0

; Function Attrs: nounwind
declare void @_ZNSt8ios_base4InitD1Ev(%"class.std::ios_base::Init"* nonnull align 1 dereferenceable(1)) unnamed_addr #1

; Function Attrs: nofree nounwind
declare i32 @__cxa_atexit(void (i8*)*, i8*, i8*) local_unnamed_addr #2

; Function Attrs: mustprogress norecurse sspstrong uwtable
define dso_local i32 @main() local_unnamed_addr #3 {
  %1 = alloca i8, align 1
  %2 = alloca [100 x i8], align 16
  %3 = alloca [100 x i8], align 16
  %4 = alloca i32, align 4
  %5 = alloca i32, align 4
  %6 = alloca [100 x i32], align 16
  %7 = getelementptr inbounds [100 x i8], [100 x i8]* %2, i64 0, i64 0
  call void @llvm.lifetime.start.p0i8(i64 100, i8* nonnull %7) #7
  %8 = getelementptr inbounds [100 x i8], [100 x i8]* %3, i64 0, i64 0
  call void @llvm.lifetime.start.p0i8(i64 100, i8* nonnull %8) #7
  %9 = bitcast i32* %4 to i8*
  call void @llvm.lifetime.start.p0i8(i64 4, i8* nonnull %9) #7
  %10 = bitcast i32* %5 to i8*
  call void @llvm.lifetime.start.p0i8(i64 4, i8* nonnull %10) #7
  %11 = bitcast [100 x i32]* %6 to i8*
  call void @llvm.lifetime.start.p0i8(i64 400, i8* nonnull %11) #7
  %12 = call nonnull align 8 dereferenceable(16) %"class.std::basic_istream"* @_ZNSirsERi(%"class.std::basic_istream"* nonnull align 8 dereferenceable(16) @_ZSt3cin, i32* nonnull align 4 dereferenceable(4) %4)
  call void @_ZSt17__istream_extractRSiPcl(%"class.std::basic_istream"* nonnull align 8 dereferenceable(16) %12, i8* nonnull %7, i64 100)
  %13 = call nonnull align 8 dereferenceable(16) %"class.std::basic_istream"* @_ZNSirsERi(%"class.std::basic_istream"* nonnull align 8 dereferenceable(16) %12, i32* nonnull align 4 dereferenceable(4) %5)
  %14 = call i64 @strlen(i8* noundef nonnull %7) #8
  %15 = load i32, i32* %4, align 4
  %16 = icmp eq i64 %14, 0
  br i1 %16, label %17, label %20

17:                                               ; preds = %46, %0
  %18 = phi i32 [ 0, %0 ], [ %49, %46 ]
  %19 = load i32, i32* %5, align 4, !tbaa !5
  br label %52

20:                                               ; preds = %0, %46
  %21 = phi i64 [ %50, %46 ], [ 0, %0 ]
  %22 = phi i32 [ %49, %46 ], [ 0, %0 ]
  %23 = getelementptr inbounds [100 x i8], [100 x i8]* %2, i64 0, i64 %21
  %24 = load i8, i8* %23, align 1, !tbaa !9
  %25 = sext i8 %24 to i32
  %26 = add i8 %24, -65
  %27 = icmp ult i8 %26, 26
  br i1 %27, label %28, label %31

28:                                               ; preds = %20
  %29 = add nsw i32 %25, -55
  %30 = getelementptr inbounds [100 x i32], [100 x i32]* %6, i64 0, i64 %21
  store i32 %29, i32* %30, align 4, !tbaa !5
  br label %46

31:                                               ; preds = %20
  %32 = add i8 %24, -97
  %33 = icmp ult i8 %32, 26
  br i1 %33, label %34, label %37

34:                                               ; preds = %31
  %35 = add nsw i32 %25, -87
  %36 = getelementptr inbounds [100 x i32], [100 x i32]* %6, i64 0, i64 %21
  store i32 %35, i32* %36, align 4, !tbaa !5
  br label %46

37:                                               ; preds = %31
  %38 = add i8 %24, -48
  %39 = icmp ult i8 %38, 10
  br i1 %39, label %43, label %40

40:                                               ; preds = %37
  %41 = getelementptr inbounds [100 x i32], [100 x i32]* %6, i64 0, i64 %21
  %42 = load i32, i32* %41, align 4, !tbaa !5
  br label %46

43:                                               ; preds = %37
  %44 = add nsw i32 %25, -48
  %45 = getelementptr inbounds [100 x i32], [100 x i32]* %6, i64 0, i64 %21
  store i32 %44, i32* %45, align 4, !tbaa !5
  br label %46

46:                                               ; preds = %40, %34, %43, %28
  %47 = phi i32 [ %42, %40 ], [ %35, %34 ], [ %44, %43 ], [ %29, %28 ]
  %48 = mul nsw i32 %15, %22
  %49 = add nsw i32 %48, %47
  %50 = add nuw nsw i64 %21, 1
  %51 = icmp eq i64 %50, %14
  br i1 %51, label %17, label %20, !llvm.loop !10

52:                                               ; preds = %52, %17
  %53 = phi i64 [ %63, %52 ], [ 0, %17 ]
  %54 = phi i32 [ %56, %52 ], [ %18, %17 ]
  %55 = srem i32 %54, %19
  %56 = sdiv i32 %54, %19
  %57 = icmp ult i32 %55, 10
  %58 = trunc i32 %55 to i8
  %59 = select i1 %57, i8 48, i8 55
  %60 = add i8 %59, %58
  %61 = getelementptr inbounds [100 x i8], [100 x i8]* %3, i64 0, i64 %53
  store i8 %60, i8* %61, align 1
  %62 = icmp eq i32 %56, 0
  %63 = add nuw i64 %53, 1
  br i1 %62, label %64, label %52, !llvm.loop !12

64:                                               ; preds = %52
  %65 = and i64 %53, 4294967295
  br label %66

66:                                               ; preds = %64, %66
  %67 = phi i64 [ %65, %64 ], [ %73, %66 ]
  %68 = getelementptr inbounds [100 x i8], [100 x i8]* %3, i64 0, i64 %67
  %69 = load i8, i8* %68, align 1, !tbaa !9
  call void @llvm.lifetime.start.p0i8(i64 1, i8* nonnull %1)
  store i8 %69, i8* %1, align 1, !tbaa !9
  %70 = call nonnull align 8 dereferenceable(8) %"class.std::basic_ostream"* @_ZSt16__ostream_insertIcSt11char_traitsIcEERSt13basic_ostreamIT_T0_ES6_PKS3_l(%"class.std::basic_ostream"* nonnull align 8 dereferenceable(8) @_ZSt4cout, i8* nonnull %1, i64 1)
  call void @llvm.lifetime.end.p0i8(i64 1, i8* nonnull %1)
  %71 = trunc i64 %67 to i32
  %72 = icmp sgt i32 %71, 0
  %73 = add nsw i64 %67, -1
  br i1 %72, label %66, label %74, !llvm.loop !13

74:                                               ; preds = %66
  call void @llvm.lifetime.end.p0i8(i64 400, i8* nonnull %11) #7
  call void @llvm.lifetime.end.p0i8(i64 4, i8* nonnull %10) #7
  call void @llvm.lifetime.end.p0i8(i64 4, i8* nonnull %9) #7
  call void @llvm.lifetime.end.p0i8(i64 100, i8* nonnull %8) #7
  call void @llvm.lifetime.end.p0i8(i64 100, i8* nonnull %7) #7
  ret i32 0
}

; Function Attrs: argmemonly mustprogress nofree nosync nounwind willreturn
declare void @llvm.lifetime.start.p0i8(i64 immarg, i8* nocapture) #4

declare nonnull align 8 dereferenceable(16) %"class.std::basic_istream"* @_ZNSirsERi(%"class.std::basic_istream"* nonnull align 8 dereferenceable(16), i32* nonnull align 4 dereferenceable(4)) local_unnamed_addr #0

; Function Attrs: argmemonly mustprogress nofree nounwind readonly willreturn
declare i64 @strlen(i8* nocapture) local_unnamed_addr #5

; Function Attrs: argmemonly mustprogress nofree nosync nounwind willreturn
declare void @llvm.lifetime.end.p0i8(i64 immarg, i8* nocapture) #4

declare void @_ZSt17__istream_extractRSiPcl(%"class.std::basic_istream"* nonnull align 8 dereferenceable(16), i8*, i64) local_unnamed_addr #0

declare nonnull align 8 dereferenceable(8) %"class.std::basic_ostream"* @_ZSt16__ostream_insertIcSt11char_traitsIcEERSt13basic_ostreamIT_T0_ES6_PKS3_l(%"class.std::basic_ostream"* nonnull align 8 dereferenceable(8), i8*, i64) local_unnamed_addr #0

; Function Attrs: sspstrong uwtable
define internal void @_GLOBAL__sub_I_1308.cpp() #6 section ".text.startup" {
  tail call void @_ZNSt8ios_base4InitC1Ev(%"class.std::ios_base::Init"* nonnull align 1 dereferenceable(1) @_ZStL8__ioinit)
  %1 = tail call i32 @__cxa_atexit(void (i8*)* bitcast (void (%"class.std::ios_base::Init"*)* @_ZNSt8ios_base4InitD1Ev to void (i8*)*), i8* getelementptr inbounds (%"class.std::ios_base::Init", %"class.std::ios_base::Init"* @_ZStL8__ioinit, i64 0, i32 0), i8* nonnull @__dso_handle) #7
  ret void
}


!llvm.module.flags = !{!0, !1, !2, !3}
!llvm.ident = !{!4}

!0 = !{i32 1, !"wchar_size", i32 4}
!1 = !{i32 7, !"PIC Level", i32 2}
!2 = !{i32 7, !"PIE Level", i32 2}
!3 = !{i32 7, !"uwtable", i32 1}
!4 = !{!"clang version 13.0.0"}
!5 = !{!6, !6, i64 0}
!6 = !{!"int", !7, i64 0}
!7 = !{!"omnipotent char", !8, i64 0}
!8 = !{!"Simple C++ TBAA"}
!9 = !{!7, !7, i64 0}
!10 = distinct !{!10, !11}
!11 = !{!"llvm.loop.mustprogress"}
!12 = distinct !{!12, !11}
!13 = distinct !{!13, !11}
